target datalayout = "e-m:e-p270:32:32-p271:32:32-p272:64:64-i64:64-i128:128-f80:128-n8:16:32:64-S128"
target triple = "x86_64-unknown-linux-gnu"

%"class.Assimp::Exporter" = type { ptr }

; Function Attrs: mustprogress uwtable
define i64 @aiGetExportFormatCount() #2 personality ptr @__gxx_personality_v0 {
entry:
  %ref.tmp = alloca %"class.Assimp::Exporter", align 8
  %exn.slot = alloca ptr, align 8
  %ehselector.slot = alloca i32, align 4
  call void @_ZN6Assimp8ExporterC1Ev(ptr noundef nonnull align 8 dereferenceable(8) %ref.tmp)
  %call = invoke noundef i64 @_ZNK6Assimp8Exporter20GetExportFormatCountEv(ptr noundef nonnull align 8 dereferenceable(8) %ref.tmp)
          to label %invoke.cont unwind label %lpad

invoke.cont:                                      ; preds = %entry
  call void @_ZN6Assimp8ExporterD1Ev(ptr noundef nonnull align 8 dereferenceable(8) %ref.tmp) #13
  ret i64 %call

lpad:                                             ; preds = %entry
  %0 = landingpad { ptr, i32 }
          cleanup
  %1 = extractvalue { ptr, i32 } %0, 0
  store ptr %1, ptr %exn.slot, align 8
  %2 = extractvalue { ptr, i32 } %0, 1
  store i32 %2, ptr %ehselector.slot, align 4
  call void @_ZN6Assimp8ExporterD1Ev(ptr noundef nonnull align 8 dereferenceable(8) %ref.tmp) #13
  br label %eh.resume

eh.resume:                                        ; preds = %lpad
  %exn = load ptr, ptr %exn.slot, align 8
  %sel = load i32, ptr %ehselector.slot, align 4
  %lpad.val = insertvalue { ptr, i32 } poison, ptr %exn, 0
  %lpad.val1 = insertvalue { ptr, i32 } %lpad.val, i32 %sel, 1
  resume { ptr, i32 } %lpad.val1
}